(lp0
Vbankssts-lh
p1
aVbankssts-rh
p2
aVcaudalanteriorcingulate-lh
p3
aVcaudalanteriorcingulate-rh
p4
aVcaudalmiddlefrontal-lh
p5
aVcaudalmiddlefrontal-rh
p6
aVcuneus-lh
p7
aVcuneus-rh
p8
aVentorhinal-lh
p9
aVentorhinal-rh
p10
aVfrontalpole-lh
p11
aVfrontalpole-rh
p12
aVfusiform-lh
p13
aVfusiform-rh
p14
aVinferiorparietal-lh
p15
aVinferiorparietal-rh
p16
aVinferiortemporal-lh
p17
aVinferiortemporal-rh
p18
aVinsula-lh
p19
aVinsula-rh
p20
aVisthmuscingulate-lh
p21
aVisthmuscingulate-rh
p22
aVlateraloccipital-lh
p23
aVlateraloccipital-rh
p24
aVlateralorbitofrontal-lh
p25
aVlateralorbitofrontal-rh
p26
aVlingual-lh
p27
aVlingual-rh
p28
aVmedialorbitofrontal-lh
p29
aVmedialorbitofrontal-rh
p30
aVmiddletemporal-lh
p31
aVmiddletemporal-rh
p32
aVparacentral-lh
p33
aVparacentral-rh
p34
aVparahippocampal-lh
p35
aVparahippocampal-rh
p36
aVparsopercularis-lh
p37
aVparsopercularis-rh
p38
aVparsorbitalis-lh
p39
aVparsorbitalis-rh
p40
aVparstriangularis-lh
p41
aVparstriangularis-rh
p42
aVpericalcarine-lh
p43
aVpericalcarine-rh
p44
aVpostcentral-lh
p45
aVpostcentral-rh
p46
aVposteriorcingulate-lh
p47
aVposteriorcingulate-rh
p48
aVprecentral-lh
p49
aVprecentral-rh
p50
aVprecuneus-lh
p51
aVprecuneus-rh
p52
aVrostralanteriorcingulate-lh
p53
aVrostralanteriorcingulate-rh
p54
aVrostralmiddlefrontal-lh
p55
aVrostralmiddlefrontal-rh
p56
aVsuperiorfrontal-lh
p57
aVsuperiorfrontal-rh
p58
aVsuperiorparietal-lh
p59
aVsuperiorparietal-rh
p60
aVsuperiortemporal-lh
p61
aVsuperiortemporal-rh
p62
aVsupramarginal-lh
p63
aVsupramarginal-rh
p64
aVtemporalpole-lh
p65
aVtemporalpole-rh
p66
aVtransversetemporal-lh
p67
aVtransversetemporal-rh
p68
a.